; Function Attrs: mustprogress uwtable
define internal void @_ZN11opencv_test12_GLOBAL__N_142gtest_ThinningPerfTest_perf_EvalGenerator_Ev(ptr dead_on_unwind noalias writable sret(%"class.testing::internal::ParamGenerator") align 8 %0) #4 {
  %2 = alloca %"class.testing::internal::CartesianProductHolder2", align 8
  call void @llvm.lifetime.start.p0(i64 32, ptr nonnull %2) #27
  %.sroa.02.0.copyload = load i64, ptr @_ZN4perfL7sz1080pE, align 8
  %.sroa.01.0.copyload = load i64, ptr @_ZN4perfL6sz720pE, align 8
  %.sroa.0.0.copyload = load i64, ptr @_ZN4perfL5szVGAE, align 8
  store i64 %.sroa.02.0.copyload, ptr %2, align 8, !alias.scope !34
  %3 = getelementptr inbounds nuw i8, ptr %2, i64 8
  store i64 %.sroa.01.0.copyload, ptr %3, align 8, !alias.scope !34
  %4 = getelementptr inbounds nuw i8, ptr %2, i64 16
  store i64 %.sroa.0.0.copyload, ptr %4, align 8, !alias.scope !34
  %5 = getelementptr inbounds nuw i8, ptr %2, i64 24
  store i32 0, ptr %5, align 8, !tbaa !37, !alias.scope !34
  %6 = getelementptr inbounds nuw i8, ptr %2, i64 28
  store i32 1, ptr %6, align 4, !tbaa !40, !alias.scope !34
  call void @_ZNK7testing8internal23CartesianProductHolder2INS0_11ValueArray3IN2cv5Size_IiEES5_S5_EENS0_11ValueArray2INS3_8ximgproc13ThinningTypesES9_EEEcvNS0_14ParamGeneratorISt5tupleIJT_T0_EEEEIS5_iEEv(ptr dead_on_unwind writable sret(%"class.testing::internal::ParamGenerator") align 8 %0, ptr noundef nonnull align 4 dereferenceable(32) %2)
  call void @llvm.lifetime.end.p0(i64 32, ptr nonnull %2) #27
  ret void
}